Certificate:
    Data:
        Version: 1 (0x0)
        Serial Number: 1 (0x1)
        Signature Algorithm: md5WithRSAEncryption
        Issuer: C=US, ST=Unset, L=Unset, O=Unset, CN=www.example.com
        Validity
            Not Before: Oct  7 09:32:43 2013 GMT
            Not After : Oct  7 09:32:43 2014 GMT
        Subject: C=US, ST=Unset, O=Unset, CN=www.example.com
        Subject Public Key Info:
            Public Key Algorithm: rsaEncryption
                Public-Key: (1024 bit)
                Modulus:
                    00:f7:78:f3:03:8c:5d:e2:3c:3e:33:99:ea:45:ac:
                    48:93:e6:b7:c2:df:61:06:7b:91:8a:55:3d:58:b6:
                    25:dc:67:67:f6:b3:a0:87:63:82:16:01:23:2e:b1:
                    6b:11:d5:86:49:f1:03:0f:a8:53:df:e1:8e:58:66:
                    ab:ce:5c:c3:09:bb:7f:20:33:d2:81:b9:e4:01:1b:
                    ca:12:f6:01:a3:6d:ff:2a:c4:f3:d1:ae:0e:68:b3:
                    a1:d1:2b:f1:9c:b8:33:40:0b:20:40:9f:a7:67:98:
                    a6:c3:b0:fc:d1:13:5a:8d:81:d7:ad:26:c4:c0:36:
                    4c:8b:a8:3c:65:58:70:a3:ad
                Exponent: 65537 (0x10001)
    Signature Algorithm: md5WithRSAEncryption
        a1:3d:ed:fa:d5:02:3f:47:32:0a:57:f9:d1:d3:3f:21:ce:71:
        60:01:d9:a6:41:85:e6:06:b7:c4:ab:d2:e9:42:39:b3:39:95:
        a8:d9:6e:fb:97:f5:74:fe:66:a8:82:bd:6f:fb:c7:79:b9:e9:
        02:22:f0:31:72:f0:14:ed:82:00:e0:41:0e:33:f6:de:64:38:
        bf:ab:ab:93:cc:b9:92:69:96:65:40:b0:4e:1c:65:b9:7b:e5:
        ad:47:1e:dc:88:50:bf:25:ac:0c:fe:69:a4:27:c2:4f:32:6f:
        e9:0c:85:c5:a0:46:66:94:86:a0:ca:b5:45:43:b6:24:47:d9:
        c2:37
-----BEGIN CERTIFICATE-----
MIICDTCCAXYCAQEwDQYJKoZIhvcNAQEEBQAwVzELMAkGA1UEBhMCVVMxDjAMBgNV
BAgTBVVuc2V0MQ4wDAYDVQQHEwVVbnNldDEOMAwGA1UEChMFVW5zZXQxGDAWBgNV
BAMTD3d3dy5leGFtcGxlLmNvbTAeFw0xMzEwMDcwOTMyNDNaFw0xNDEwMDcwOTMy
NDNaMEcxCzAJBgNVBAYTAlVTMQ4wDAYDVQQIEwVVbnNldDEOMAwGA1UEChMFVW5z
ZXQxGDAWBgNVBAMTD3d3dy5leGFtcGxlLmNvbTCBnzANBgkqhkiG9w0BAQEFAAOB
jQAwgYkCgYEA93jzA4xd4jw+M5nqRaxIk+a3wt9hBnuRilU9WLYl3Gdn9rOgh2OC
FgEjLrFrEdWGSfEDD6hT3+GOWGarzlzDCbt/IDPSgbnkARvKEvYBo23/KsTz0a4O
aLOh0SvxnLgzQAsgQJ+nZ5imw7D80RNajYHXrSbEwDZMi6g8ZVhwo60CAwEAATAN
BgkqhkiG9w0BAQQFAAOBgQChPe361QI/RzIKV/nR0z8hznFgAdmmQYXmBrfEq9Lp
QjmzOZWo2W77l/V0/maogr1v+8d5uekCIvAxcvAU7YIA4EEOM/beZDi/q6uTzLmS
aZZlQLBOHGW5e+WtRx7ciFC/JawM/mmkJ8JPMm/pDIXFoEZmlIagyrVFQ7YkR9nC
Nw==
-----END CERTIFICATE-----
